; Function Attrs: mustprogress uwtable
define dso_local void @_ZN16cmLocalGenerator21GetTargetCompileFlagsEP17cmGeneratorTargetRKNSt7__cxx1112basic_stringIcSt11char_traitsIcESaIcEEES9_RS7_S9_(ptr noundef nonnull align 8 dereferenceable(824) %0, ptr noundef %1, ptr noundef nonnull align 8 dereferenceable(32) %2, ptr noundef nonnull align 8 dereferenceable(32) %3, ptr noundef nonnull align 8 dereferenceable(32) %4, ptr noundef nonnull align 8 dereferenceable(32) %5) local_unnamed_addr #3 align 2 personality ptr @__gxx_personality_v0 {
  %7 = alloca %"class.std::vector.807", align 8
  call void @_ZN16cmLocalGenerator21GetTargetCompileFlagsEP17cmGeneratorTargetRKNSt7__cxx1112basic_stringIcSt11char_traitsIcESaIcEEES9_S9_(ptr dead_on_unwind nonnull writable sret(%"class.std::vector.807") align 8 %7, ptr noundef nonnull align 8 dereferenceable(824) %0, ptr noundef %1, ptr noundef nonnull align 8 dereferenceable(32) %2, ptr noundef nonnull align 8 dereferenceable(32) %3, ptr noundef nonnull align 8 dereferenceable(32) %5)
  %8 = load ptr, ptr %0, align 8
  %9 = getelementptr inbounds i8, ptr %8, i64 64
  %10 = load ptr, ptr %9, align 8
  invoke void %10(ptr noundef nonnull align 8 dereferenceable(824) %0, ptr noundef nonnull align 8 dereferenceable(32) %4, ptr noundef nonnull align 8 dereferenceable(24) %7)
          to label %11 unwind label %12

11:                                               ; preds = %6
  call void @_ZNSt6vectorI2BTINSt7__cxx1112basic_stringIcSt11char_traitsIcESaIcEEEESaIS7_EED2Ev(ptr noundef nonnull align 8 dereferenceable(24) %7) #23
  ret void

12:                                               ; preds = %6
  %13 = landingpad { ptr, i32 }
          cleanup
  call void @_ZNSt6vectorI2BTINSt7__cxx1112basic_stringIcSt11char_traitsIcESaIcEEEESaIS7_EED2Ev(ptr noundef nonnull align 8 dereferenceable(24) %7) #23
  resume { ptr, i32 } %13
}